Certificate:
    Data:
        Version: 3 (0x2)
        Serial Number:
            c5:98:04:48:c4:11:1a:18
        Signature Algorithm: sha1WithRSAEncryption
        Issuer: C=US, ST=Some-State, O=Internet Widgits Certificate Authority, CN=Internet Widgits
        Validity
            Not Before: Jul 13 18:21:02 2009 GMT
            Not After : Nov 28 18:21:02 2036 GMT
        Subject: C=US, ST=Some-State, O=Internet Widgits Certificate Authority, CN=Internet Widgits
        Subject Public Key Info:
            Public Key Algorithm: rsaEncryption
            RSA Public Key: (1024 bit)
                Modulus (1024 bit):
                    00:c2:bf:93:a8:d0:c5:13:22:b6:af:88:1a:61:81:
                    bf:04:0d:db:fa:3d:65:0d:b7:c8:a9:39:36:5f:e5:
                    e0:61:fc:55:07:58:54:c7:06:04:1c:6f:54:49:19:
                    04:6a:d5:46:ba:da:05:cd:d3:05:08:76:b7:eb:c2:
                    cc:e3:11:0c:47:97:16:84:2c:e6:76:ba:54:03:03:
                    3f:d4:ef:f4:6e:7f:b3:2c:07:0d:ca:91:c9:11:d8:
                    ec:9b:22:af:83:24:4d:8c:de:43:bb:14:90:73:d6:
                    78:20:47:7a:eb:36:bf:8a:74:c3:76:fc:f1:15:7a:
                    c7:e3:52:54:7e:3a:20:97:ad
                Exponent: 65537 (0x10001)
        X509v3 extensions:
            X509v3 Subject Key Identifier: 
                4C:78:21:8D:5B:4F:36:F0:19:EB:77:29:73:AE:E8:B1:B2:DE:BE:D6
            X509v3 Authority Key Identifier: 
                keyid:4C:78:21:8D:5B:4F:36:F0:19:EB:77:29:73:AE:E8:B1:B2:DE:BE:D6
                DirName:/C=US/ST=Some-State/O=Internet Widgits Certificate Authority/CN=Internet Widgits
                serial:C5:98:04:48:C4:11:1A:18

            X509v3 Basic Constraints: 
                CA:TRUE
    Signature Algorithm: sha1WithRSAEncryption
        8e:9d:80:fb:6b:1c:cc:e8:ce:dc:af:78:de:fe:d3:99:d6:d9:
        d5:66:39:0b:2d:d5:78:f6:ae:45:7a:2b:06:72:30:d0:7d:fa:
        da:8e:89:b0:87:e8:f1:7f:11:ef:77:ee:b5:5e:01:b2:b8:3a:
        18:d7:2c:e9:fb:51:7b:00:12:73:35:81:32:a6:e0:14:e3:7d:
        7a:49:ab:9e:08:8f:60:2d:28:10:bb:6e:34:ca:6b:b8:3c:aa:
        27:4b:93:b8:7c:14:a8:13:46:c1:9f:5f:aa:34:41:9c:2a:66:
        45:4d:9d:ba:86:5a:e0:a9:c6:c8:9a:77:2a:88:2a:89:ee:ea:
        99:c8
-----BEGIN CERTIFICATE-----
MIIDLjCCApegAwIBAgIJAMWYBEjEERoYMA0GCSqGSIb3DQEBBQUAMG4xCzAJBgNV
BAYTAlVTMRMwEQYDVQQIEwpTb21lLVN0YXRlMS8wLQYDVQQKEyZJbnRlcm5ldCBX
aWRnaXRzIENlcnRpZmljYXRlIEF1dGhvcml0eTEZMBcGA1UEAxMQSW50ZXJuZXQg
V2lkZ2l0czAeFw0wOTA3MTMxODIxMDJaFw0zNjExMjgxODIxMDJaMG4xCzAJBgNV
BAYTAlVTMRMwEQYDVQQIEwpTb21lLVN0YXRlMS8wLQYDVQQKEyZJbnRlcm5ldCBX
aWRnaXRzIENlcnRpZmljYXRlIEF1dGhvcml0eTEZMBcGA1UEAxMQSW50ZXJuZXQg
V2lkZ2l0czCBnzANBgkqhkiG9w0BAQEFAAOBjQAwgYkCgYEAwr+TqNDFEyK2r4ga
YYG/BA3b+j1lDbfIqTk2X+XgYfxVB1hUxwYEHG9USRkEatVGutoFzdMFCHa368LM
4xEMR5cWhCzmdrpUAwM/1O/0bn+zLAcNypHJEdjsmyKvgyRNjN5DuxSQc9Z4IEd6
6za/inTDdvzxFXrH41JUfjogl60CAwEAAaOB0zCB0DAdBgNVHQ4EFgQUTHghjVtP
NvAZ63cpc67osbLevtYwgaAGA1UdIwSBmDCBlYAUTHghjVtPNvAZ63cpc67osbLe
vtahcqRwMG4xCzAJBgNVBAYTAlVTMRMwEQYDVQQIEwpTb21lLVN0YXRlMS8wLQYD
VQQKEyZJbnRlcm5ldCBXaWRnaXRzIENlcnRpZmljYXRlIEF1dGhvcml0eTEZMBcG
A1UEAxMQSW50ZXJuZXQgV2lkZ2l0c4IJAMWYBEjEERoYMAwGA1UdEwQFMAMBAf8w
DQYJKoZIhvcNAQEFBQADgYEAjp2A+2sczOjO3K943v7TmdbZ1WY5Cy3VePauRXor
BnIw0H362o6JsIfo8X8R73futV4Bsrg6GNcs6ftRewASczWBMqbgFON9ekmrngiP
YC0oELtuNMpruDyqJ0uTuHwUqBNGwZ9fqjRBnCpmRU2duoZa4KnGyJp3Kogqie7q
mcg=
-----END CERTIFICATE-----
