Certificate:
    Data:
        Version: 3 (0x2)
        Serial Number:
            a2:50:a2:7f:10:1f:c5:31
        Signature Algorithm: sha1WithRSAEncryption
        Issuer: C=US, ST=CA, O=Visa, CN=Visa
        Validity
            Not Before: Oct 28 21:57:06 2008 GMT
            Not After : Oct 28 21:57:06 2009 GMT
        Subject: C=US, ST=CA, L=Foster City, O=Visa, CN=Jeffrey Tchang/emailAddress=jtchang@visa.com
        Subject Public Key Info:
            Public Key Algorithm: rsaEncryption
            RSA Public Key: (1024 bit)
                Modulus (1024 bit):
                    00:c5:83:88:a3:d0:b2:8a:48:f3:7d:4b:46:94:da:
                    3f:9c:1f:d0:5d:2f:78:cb:25:04:b2:63:8d:ac:5b:
                    bc:cd:c4:65:86:0e:0a:2f:38:58:31:f2:1d:ef:f0:
                    46:2f:1c:89:46:62:c6:60:03:bd:c9:12:73:98:cf:
                    da:e3:a8:01:23:f6:68:d7:0a:17:4c:c7:d7:42:a3:
                    44:9e:90:42:bc:d8:aa:42:c0:46:98:d1:04:8d:53:
                    55:48:7f:0c:c8:90:3b:b6:83:1f:79:cb:e1:0a:f0:
                    fd:a2:55:0f:d8:26:56:e4:4e:a2:4d:51:e4:41:87:
                    ac:87:a8:bc:fe:b8:fc:3c:85
                Exponent: 65537 (0x10001)
        X509v3 extensions:
            X509v3 Basic Constraints: 
                CA:FALSE
            Netscape Comment: 
                OpenSSL Generated Certificate
            X509v3 Subject Key Identifier: 
                64:08:11:2B:02:50:2E:13:C3:62:0A:86:D0:F5:02:7D:22:95:86:82
            X509v3 Authority Key Identifier: 
                keyid:4B:55:07:08:90:3F:85:2D:E9:88:49:21:05:F2:54:18:7A:96:7F:3D

    Signature Algorithm: sha1WithRSAEncryption
        59:49:ba:89:52:f4:4e:5a:7b:57:52:d3:c2:c8:b8:6d:1c:ab:
        19:46:7a:82:de:9a:9a:0f:fb:69:d1:66:28:f8:3c:0c:06:cc:
        cc:a6:79:8f:23:15:0a:fb:00:57:95:55:ee:90:0c:96:ea:6f:
        ad:c6:a3:b2:a4:67:48:f4:4a:ca:41:4a:f0:01:80:6c:16:be:
        45:60:fc:41:6e:ca:85:94:a7:a7:c8:9d:5d:58:99:ce:89:35:
        91:a7:a6:c7:5b:25:e4:61:35:cf:95:17:60:56:86:a7:11:a2:
        ae:b7:25:a1:6b:ef:24:f8:c0:6f:91:fe:6f:57:f8:61:98:cf:
        d7:e1
-----BEGIN CERTIFICATE-----
MIICqjCCAhOgAwIBAgIJAKJQon8QH8UxMA0GCSqGSIb3DQEBBQUAMDgxCzAJBgNV
BAYTAlVTMQswCQYDVQQIEwJDQTENMAsGA1UEChMEVmlzYTENMAsGA1UEAxMEVmlz
YTAeFw0wODEwMjgyMTU3MDZaFw0wOTEwMjgyMTU3MDZaMHkxCzAJBgNVBAYTAlVT
MQswCQYDVQQIEwJDQTEUMBIGA1UEBxMLRm9zdGVyIENpdHkxDTALBgNVBAoTBFZp
c2ExFzAVBgNVBAMTDkplZmZyZXkgVGNoYW5nMR8wHQYJKoZIhvcNAQkBFhBqdGNo
YW5nQHZpc2EuY29tMIGfMA0GCSqGSIb3DQEBAQUAA4GNADCBiQKBgQDFg4ij0LKK
SPN9S0aU2j+cH9BdL3jLJQSyY42sW7zNxGWGDgovOFgx8h3v8EYvHIlGYsZgA73J
EnOYz9rjqAEj9mjXChdMx9dCo0SekEK82KpCwEaY0QSNU1VIfwzIkDu2gx95y+EK
8P2iVQ/YJlbkTqJNUeRBh6yHqLz+uPw8hQIDAQABo3sweTAJBgNVHRMEAjAAMCwG
CWCGSAGG+EIBDQQfFh1PcGVuU1NMIEdlbmVyYXRlZCBDZXJ0aWZpY2F0ZTAdBgNV
HQ4EFgQUZAgRKwJQLhPDYgqG0PUCfSKVhoIwHwYDVR0jBBgwFoAUS1UHCJA/hS3p
iEkhBfJUGHqWfz0wDQYJKoZIhvcNAQEFBQADgYEAWUm6iVL0Tlp7V1LTwsi4bRyr
GUZ6gt6amg/7adFmKPg8DAbMzKZ5jyMVCvsAV5VV7pAMlupvrcajsqRnSPRKykFK
8AGAbBa+RWD8QW7KhZSnp8idXViZzok1kaemx1sl5GE1z5UXYFaGpxGirrcloWvv
JPjAb5H+b1f4YZjP1+E=
-----END CERTIFICATE-----
